Certificate:
    Data:
        Version: 3 (0x2)
        Serial Number: 0 (0x0)
    Signature Algorithm: md5WithRSAEncryption
        Issuer: C=RO, ST=Bucharest, L=Bucharest, O=N E T O P I A , OU=N E T O P I A Development Team, CN=mobilpay.ro/emailAddress=support@mobilpay.ro
        Validity
            Not Before: Aug  8 07:13:29 2014 GMT
            Not After : Aug  8 07:13:29 2015 GMT
        Subject: C=RO, ST=Bucharest, L=Bucharest, O=N E T O P I A , OU=N E T O P I A Development Team, CN=mobilpay.ro/emailAddress=support@mobilpay.ro
        Subject Public Key Info:
            Public Key Algorithm: rsaEncryption
                Public-Key: (1024 bit)
                Modulus:
                    00:bc:21:d3:f3:61:12:96:45:b8:ab:e0:85:9f:4d:
                    ef:90:97:6d:ad:39:31:63:42:87:8d:b6:91:c7:c5:
                    29:ba:8f:e5:85:62:09:40:60:dc:c7:39:65:87:75:
                    7b:45:e2:f5:48:b5:40:8d:99:fe:3b:ef:72:1a:c3:
                    64:64:30:8d:aa:c0:a6:bd:d2:f5:ba:30:1c:49:19:
                    1f:cd:59:a2:53:a8:3c:70:59:6d:8a:40:db:c0:48:
                    c8:76:11:71:a4:d7:8c:bb:62:04:6b:e3:a7:0b:b3:
                    96:39:97:78:1a:15:2e:29:c8:68:4d:08:52:93:1e:
                    9f:d3:0b:58:6d:9f:18:c7:5d
                Exponent: 65537 (0x10001)
        X509v3 extensions:
            X509v3 Subject Key Identifier: 
                3D:C9:70:A1:30:6C:73:53:34:1F:96:69:17:4F:5A:32:20:1A:1E:B5
            X509v3 Authority Key Identifier: 
                keyid:3D:C9:70:A1:30:6C:73:53:34:1F:96:69:17:4F:5A:32:20:1A:1E:B5

            X509v3 Basic Constraints: 
                CA:TRUE
    Signature Algorithm: md5WithRSAEncryption
         01:35:7c:ae:03:2b:fd:e9:31:e0:04:87:e3:4c:8f:75:37:ad:
         e8:9f:bb:81:d6:43:a5:92:3f:02:d1:87:41:0c:67:59:c8:d6:
         0b:a9:9c:69:43:6b:6b:65:9b:81:90:50:2f:0e:16:12:ba:cd:
         ce:5d:4f:ce:20:33:a2:7f:b9:42:cd:67:71:c9:4c:2c:6b:c4:
         23:b0:af:64:29:65:10:b3:3c:a6:ba:15:e7:ae:ed:0d:18:83:
         0f:5b:a7:25:0c:e6:ff:c4:de:e8:71:80:12:4a:2a:2d:5f:01:
         3c:75:71:61:67:e4:0c:07:86:1f:99:37:a5:43:1f:ca:bb:3a:
         9d:12
-----BEGIN CERTIFICATE-----
MIIDKjCCApOgAwIBAgIBADANBgkqhkiG9w0BAQQFADCBsTELMAkGA1UEBhMCUk8x
EjAQBgNVBAgMCUJ1Y2hhcmVzdDESMBAGA1UEBwwJQnVjaGFyZXN0MRcwFQYDVQQK
DA5OIEUgVCBPIFAgSSBBIDEnMCUGA1UECwweTiBFIFQgTyBQIEkgQSBEZXZlbG9w
bWVudCBUZWFtMRQwEgYDVQQDDAttb2JpbHBheS5ybzEiMCAGCSqGSIb3DQEJARYT
c3VwcG9ydEBtb2JpbHBheS5ybzAeFw0xNDA4MDgwNzEzMjlaFw0xNTA4MDgwNzEz
MjlaMIGxMQswCQYDVQQGEwJSTzESMBAGA1UECAwJQnVjaGFyZXN0MRIwEAYDVQQH
DAlCdWNoYXJlc3QxFzAVBgNVBAoMDk4gRSBUIE8gUCBJIEEgMScwJQYDVQQLDB5O
IEUgVCBPIFAgSSBBIERldmVsb3BtZW50IFRlYW0xFDASBgNVBAMMC21vYmlscGF5
LnJvMSIwIAYJKoZIhvcNAQkBFhNzdXBwb3J0QG1vYmlscGF5LnJvMIGfMA0GCSqG
SIb3DQEBAQUAA4GNADCBiQKBgQC8IdPzYRKWRbir4IWfTe+Ql22tOTFjQoeNtpHH
xSm6j+WFYglAYNzHOWWHdXtF4vVItUCNmf4773Iaw2RkMI2qwKa90vW6MBxJGR/N
WaJTqDxwWW2KQNvASMh2EXGk14y7YgRr46cLs5Y5l3gaFS4pyGhNCFKTHp/TC1ht
nxjHXQIDAQABo1AwTjAdBgNVHQ4EFgQUPclwoTBsc1M0H5ZpF09aMiAaHrUwHwYD
VR0jBBgwFoAUPclwoTBsc1M0H5ZpF09aMiAaHrUwDAYDVR0TBAUwAwEB/zANBgkq
hkiG9w0BAQQFAAOBgQABNXyuAyv96THgBIfjTI91N63on7uB1kOlkj8C0YdBDGdZ
yNYLqZxpQ2trZZuBkFAvDhYSus3OXU/OIDOif7lCzWdxyUwsa8QjsK9kKWUQszym
uhXnru0NGIMPW6clDOb/xN7ocYASSiotXwE8dXFhZ+QMB4YfmTelQx/KuzqdEg==
-----END CERTIFICATE-----
